target datalayout = "e-m:e-p270:32:32-p271:32:32-p272:64:64-i64:64-i128:128-f80:128-n8:16:32:64-S128"
target triple = "x86_64-pc-linux-gnu"

; Function Attrs: nounwind uwtable
define internal void @pred8x8_top_dc_8_c(ptr noundef %0, i64 noundef %1) #1 {
  %3 = alloca ptr, align 8
  %4 = alloca i64, align 8
  %5 = alloca i32, align 4
  %6 = alloca i32, align 4
  %7 = alloca i32, align 4
  %8 = alloca i32, align 4
  %9 = alloca i32, align 4
  %10 = alloca ptr, align 8
  store ptr %0, ptr %3, align 8, !tbaa !12
  store i64 %1, ptr %4, align 8, !tbaa !14
  call void @llvm.lifetime.start.p0(i64 4, ptr %5) #9
  call void @llvm.lifetime.start.p0(i64 4, ptr %6) #9
  call void @llvm.lifetime.start.p0(i64 4, ptr %7) #9
  call void @llvm.lifetime.start.p0(i64 4, ptr %8) #9
  call void @llvm.lifetime.start.p0(i64 4, ptr %9) #9
  call void @llvm.lifetime.start.p0(i64 8, ptr %10) #9
  %11 = load ptr, ptr %3, align 8, !tbaa !12
  store ptr %11, ptr %10, align 8, !tbaa !12
  %12 = load i64, ptr %4, align 8, !tbaa !14
  %13 = ashr i64 %12, 0
  store i64 %13, ptr %4, align 8, !tbaa !14
  store i32 0, ptr %7, align 4, !tbaa !9
  store i32 0, ptr %6, align 4, !tbaa !9
  store i32 0, ptr %5, align 4, !tbaa !9
  br label %14

14:                                               ; preds = %39, %2
  %15 = load i32, ptr %5, align 4, !tbaa !9
  %16 = icmp slt i32 %15, 4
  br i1 %16, label %17, label %42

17:                                               ; preds = %14
  %18 = load ptr, ptr %10, align 8, !tbaa !12
  %19 = load i32, ptr %5, align 4, !tbaa !9
  %20 = sext i32 %19 to i64
  %21 = load i64, ptr %4, align 8, !tbaa !14
  %22 = sub nsw i64 %20, %21
  %23 = getelementptr inbounds i8, ptr %18, i64 %22
  %24 = load i8, ptr %23, align 1, !tbaa !18
  %25 = zext i8 %24 to i32
  %26 = load i32, ptr %6, align 4, !tbaa !9
  %27 = add nsw i32 %26, %25
  store i32 %27, ptr %6, align 4, !tbaa !9
  %28 = load ptr, ptr %10, align 8, !tbaa !12
  %29 = load i32, ptr %5, align 4, !tbaa !9
  %30 = add nsw i32 4, %29
  %31 = sext i32 %30 to i64
  %32 = load i64, ptr %4, align 8, !tbaa !14
  %33 = sub nsw i64 %31, %32
  %34 = getelementptr inbounds i8, ptr %28, i64 %33
  %35 = load i8, ptr %34, align 1, !tbaa !18
  %36 = zext i8 %35 to i32
  %37 = load i32, ptr %7, align 4, !tbaa !9
  %38 = add nsw i32 %37, %36
  store i32 %38, ptr %7, align 4, !tbaa !9
  br label %39

39:                                               ; preds = %17
  %40 = load i32, ptr %5, align 4, !tbaa !9
  %41 = add nsw i32 %40, 1
  store i32 %41, ptr %5, align 4, !tbaa !9
  br label %14, !llvm.loop !264

42:                                               ; preds = %14
  %43 = load i32, ptr %6, align 4, !tbaa !9
  %44 = add nsw i32 %43, 2
  %45 = ashr i32 %44, 2
  %46 = mul i32 %45, 16843009
  store i32 %46, ptr %8, align 4, !tbaa !9
  %47 = load i32, ptr %7, align 4, !tbaa !9
  %48 = add nsw i32 %47, 2
  %49 = ashr i32 %48, 2
  %50 = mul i32 %49, 16843009
  store i32 %50, ptr %9, align 4, !tbaa !9
  store i32 0, ptr %5, align 4, !tbaa !9
  br label %51

51:                                               ; preds = %71, %42
  %52 = load i32, ptr %5, align 4, !tbaa !9
  %53 = icmp slt i32 %52, 4
  br i1 %53, label %54, label %74

54:                                               ; preds = %51
  %55 = load i32, ptr %8, align 4, !tbaa !9
  %56 = load ptr, ptr %10, align 8, !tbaa !12
  %57 = load i32, ptr %5, align 4, !tbaa !9
  %58 = sext i32 %57 to i64
  %59 = load i64, ptr %4, align 8, !tbaa !14
  %60 = mul nsw i64 %58, %59
  %61 = getelementptr inbounds i8, ptr %56, i64 %60
  %62 = getelementptr inbounds i32, ptr %61, i64 0
  store i32 %55, ptr %62, align 4, !tbaa !18
  %63 = load i32, ptr %9, align 4, !tbaa !9
  %64 = load ptr, ptr %10, align 8, !tbaa !12
  %65 = load i32, ptr %5, align 4, !tbaa !9
  %66 = sext i32 %65 to i64
  %67 = load i64, ptr %4, align 8, !tbaa !14
  %68 = mul nsw i64 %66, %67
  %69 = getelementptr inbounds i8, ptr %64, i64 %68
  %70 = getelementptr inbounds i32, ptr %69, i64 1
  store i32 %63, ptr %70, align 4, !tbaa !18
  br label %71

71:                                               ; preds = %54
  %72 = load i32, ptr %5, align 4, !tbaa !9
  %73 = add nsw i32 %72, 1
  store i32 %73, ptr %5, align 4, !tbaa !9
  br label %51, !llvm.loop !265

74:                                               ; preds = %51
  store i32 4, ptr %5, align 4, !tbaa !9
  br label %75

75:                                               ; preds = %95, %74
  %76 = load i32, ptr %5, align 4, !tbaa !9
  %77 = icmp slt i32 %76, 8
  br i1 %77, label %78, label %98

78:                                               ; preds = %75
  %79 = load i32, ptr %8, align 4, !tbaa !9
  %80 = load ptr, ptr %10, align 8, !tbaa !12
  %81 = load i32, ptr %5, align 4, !tbaa !9
  %82 = sext i32 %81 to i64
  %83 = load i64, ptr %4, align 8, !tbaa !14
  %84 = mul nsw i64 %82, %83
  %85 = getelementptr inbounds i8, ptr %80, i64 %84
  %86 = getelementptr inbounds i32, ptr %85, i64 0
  store i32 %79, ptr %86, align 4, !tbaa !18
  %87 = load i32, ptr %9, align 4, !tbaa !9
  %88 = load ptr, ptr %10, align 8, !tbaa !12
  %89 = load i32, ptr %5, align 4, !tbaa !9
  %90 = sext i32 %89 to i64
  %91 = load i64, ptr %4, align 8, !tbaa !14
  %92 = mul nsw i64 %90, %91
  %93 = getelementptr inbounds i8, ptr %88, i64 %92
  %94 = getelementptr inbounds i32, ptr %93, i64 1
  store i32 %87, ptr %94, align 4, !tbaa !18
  br label %95

95:                                               ; preds = %78
  %96 = load i32, ptr %5, align 4, !tbaa !9
  %97 = add nsw i32 %96, 1
  store i32 %97, ptr %5, align 4, !tbaa !9
  br label %75, !llvm.loop !266

98:                                               ; preds = %75
  call void @llvm.lifetime.end.p0(i64 8, ptr %10) #9
  call void @llvm.lifetime.end.p0(i64 4, ptr %9) #9
  call void @llvm.lifetime.end.p0(i64 4, ptr %8) #9
  call void @llvm.lifetime.end.p0(i64 4, ptr %7) #9
  call void @llvm.lifetime.end.p0(i64 4, ptr %6) #9
  call void @llvm.lifetime.end.p0(i64 4, ptr %5) #9
  ret void
}