; Function Attrs: nofree norecurse nosync nounwind memory(argmem: readwrite) uwtable
define internal void @pred8x8_top_dc_8_c(ptr noundef captures(none) %0, i64 noundef %1) #3 {
  br label %3

3:                                                ; preds = %2, %3
  %indvars.iv = phi i64 [ 0, %2 ], [ %indvars.iv.next, %3 ]
  %.03336 = phi i32 [ 0, %2 ], [ %8, %3 ]
  %.03435 = phi i32 [ 0, %2 ], [ %14, %3 ]
  %4 = sub nsw i64 %indvars.iv, %1
  %5 = getelementptr inbounds i8, ptr %0, i64 %4
  %6 = load i8, ptr %5, align 1, !tbaa !8
  %7 = zext i8 %6 to i32
  %8 = add nuw nsw i32 %.03336, %7
  %9 = or disjoint i64 %indvars.iv, 4
  %10 = sub nsw i64 %9, %1
  %11 = getelementptr inbounds i8, ptr %0, i64 %10
  %12 = load i8, ptr %11, align 1, !tbaa !8
  %13 = zext i8 %12 to i32
  %14 = add nuw nsw i32 %.03435, %13
  %indvars.iv.next = add nuw nsw i64 %indvars.iv, 1
  %exitcond.not = icmp eq i64 %indvars.iv.next, 4
  br i1 %exitcond.not, label %15, label %3, !llvm.loop !266

15:                                               ; preds = %3
  %16 = add nuw nsw i32 %8, 2
  %17 = lshr i32 %16, 2
  %18 = mul i32 %17, 16843009
  %19 = add nuw nsw i32 %14, 2
  %20 = lshr i32 %19, 2
  %21 = mul i32 %20, 16843009
  br label %22

22:                                               ; preds = %15, %22
  %indvars.iv42 = phi i64 [ 0, %15 ], [ %indvars.iv.next43, %22 ]
  %23 = mul nsw i64 %1, %indvars.iv42
  %24 = getelementptr inbounds i8, ptr %0, i64 %23
  store i32 %18, ptr %24, align 4, !tbaa !8
  %25 = getelementptr inbounds nuw i8, ptr %24, i64 4
  store i32 %21, ptr %25, align 4, !tbaa !8
  %indvars.iv.next43 = add nuw nsw i64 %indvars.iv42, 1
  %exitcond45.not = icmp eq i64 %indvars.iv.next43, 4
  br i1 %exitcond45.not, label %.preheader, label %22, !llvm.loop !267

.preheader:                                       ; preds = %22, %.preheader
  %indvars.iv46 = phi i64 [ %indvars.iv.next47, %.preheader ], [ 4, %22 ]
  %26 = mul nsw i64 %1, %indvars.iv46
  %27 = getelementptr inbounds i8, ptr %0, i64 %26
  store i32 %18, ptr %27, align 4, !tbaa !8
  %28 = getelementptr inbounds nuw i8, ptr %27, i64 4
  store i32 %21, ptr %28, align 4, !tbaa !8
  %indvars.iv.next47 = add nuw nsw i64 %indvars.iv46, 1
  %exitcond49.not = icmp eq i64 %indvars.iv.next47, 8
  br i1 %exitcond49.not, label %29, label %.preheader, !llvm.loop !268

29:                                               ; preds = %.preheader
  ret void
}